target datalayout = "e-m:e-p270:32:32-p271:32:32-p272:64:64-i64:64-i128:128-f80:128-n8:16:32:64-S128"
target triple = "x86_64-pc-linux-gnu"

%"class.zmq::v1_decoder_t" = type { %"class.zmq::decoder_base_t", [8 x i8], %"class.zmq::msg_t", i64 }
%"class.zmq::decoder_base_t" = type { %"class.zmq::i_decoder", { i64, i64 }, ptr, i64, %"class.zmq::c_single_allocator", ptr }
%"class.zmq::i_decoder" = type { ptr }
%"class.zmq::c_single_allocator" = type { i64, ptr }
%"class.zmq::msg_t" = type { %union.anon }
%union.anon = type { %struct.anon }
%struct.anon = type { ptr, [34 x i8], i8, i8, i32, %"union.zmq::msg_t::group_t" }
%"union.zmq::msg_t::group_t" = type { %struct.anon.1 }
%struct.anon.1 = type { i8, ptr }

@stderr = external global ptr, align 8
@.str = private unnamed_addr constant [12 x i8] c"%s (%s:%d)\0A\00", align 1
@.str.1 = private unnamed_addr constant [110 x i8] c"generated/home/dtcxzyw/WorkSpace/Projects/compilers/llvm-opt-benchmark/bench/libzmq/libzmq/src/v1_decoder.cpp\00", align 1

; Function Attrs: mustprogress nounwind uwtable
define linkonce_odr void @_ZN3zmq14decoder_base_tINS_12v1_decoder_tENS_18c_single_allocatorEE9next_stepEPvmMS1_FiPKhE(ptr noundef nonnull align 8 dereferenceable(64) %0, ptr noundef %1, i64 noundef %2, i64 %3, i64 %4) #6 comdat align 2 {
  %6 = alloca { i64, i64 }, align 8
  %7 = alloca ptr, align 8
  %8 = alloca ptr, align 8
  %9 = alloca i64, align 8
  %10 = alloca { i64, i64 }, align 8
  %11 = getelementptr inbounds nuw { i64, i64 }, ptr %6, i32 0, i32 0
  store i64 %3, ptr %11, align 8
  %12 = getelementptr inbounds nuw { i64, i64 }, ptr %6, i32 0, i32 1
  store i64 %4, ptr %12, align 8
  %13 = load { i64, i64 }, ptr %6, align 8, !tbaa !24
  store ptr %0, ptr %7, align 8, !tbaa !25
  store ptr %1, ptr %8, align 8, !tbaa !31
  store i64 %2, ptr %9, align 8, !tbaa !8
  store { i64, i64 } %13, ptr %10, align 8, !tbaa !24
  %14 = load ptr, ptr %7, align 8
  %15 = load ptr, ptr %8, align 8, !tbaa !31
  %16 = getelementptr inbounds nuw %"class.zmq::decoder_base_t", ptr %14, i32 0, i32 2
  store ptr %15, ptr %16, align 8, !tbaa !28
  %17 = load i64, ptr %9, align 8, !tbaa !8
  %18 = getelementptr inbounds nuw %"class.zmq::decoder_base_t", ptr %14, i32 0, i32 3
  store i64 %17, ptr %18, align 8, !tbaa !29
  %19 = load { i64, i64 }, ptr %10, align 8, !tbaa !24
  %20 = getelementptr inbounds nuw %"class.zmq::decoder_base_t", ptr %14, i32 0, i32 1
  store { i64, i64 } %19, ptr %20, align 8, !tbaa !27
  ret void
}

; Function Attrs: mustprogress uwtable
define noundef i32 @_ZN3zmq12v1_decoder_t19one_byte_size_readyEPKh(ptr noundef nonnull align 8 dereferenceable(144) %0, ptr noundef %1) #0 align 2 {
  %3 = alloca i32, align 4
  %4 = alloca ptr, align 8
  %5 = alloca ptr, align 8
  %6 = alloca { i64, i64 }, align 8
  %7 = alloca i32, align 4
  %8 = alloca ptr, align 8
  %9 = alloca ptr, align 8
  %10 = alloca i32, align 4
  %11 = alloca { i64, i64 }, align 8
  store ptr %0, ptr %4, align 8, !tbaa !3
  store ptr %1, ptr %5, align 8, !tbaa !21
  %12 = load ptr, ptr %4, align 8
  %13 = getelementptr inbounds nuw %"class.zmq::v1_decoder_t", ptr %12, i32 0, i32 1
  %14 = getelementptr inbounds [8 x i8], ptr %13, i64 0, i64 0
  %15 = load i8, ptr %14, align 8, !tbaa !24
  %16 = zext i8 %15 to i32
  %17 = icmp eq i32 %16, 255
  br i1 %17, label %18, label %25

18:                                               ; preds = %2
  %19 = getelementptr inbounds nuw %"class.zmq::v1_decoder_t", ptr %12, i32 0, i32 1
  %20 = getelementptr inbounds [8 x i8], ptr %19, i64 0, i64 0
  store { i64, i64 } { i64 ptrtoint (ptr @_ZN3zmq12v1_decoder_t21eight_byte_size_readyEPKh to i64), i64 0 }, ptr %6, align 8, !tbaa !24
  %21 = getelementptr inbounds nuw { i64, i64 }, ptr %6, i32 0, i32 0
  %22 = load i64, ptr %21, align 8
  %23 = getelementptr inbounds nuw { i64, i64 }, ptr %6, i32 0, i32 1
  %24 = load i64, ptr %23, align 8
  call void @_ZN3zmq14decoder_base_tINS_12v1_decoder_tENS_18c_single_allocatorEE9next_stepEPvmMS1_FiPKhE(ptr noundef nonnull align 8 dereferenceable(64) %12, ptr noundef %20, i64 noundef 8, i64 %22, i64 %24)
  br label %116

25:                                               ; preds = %2
  %26 = getelementptr inbounds nuw %"class.zmq::v1_decoder_t", ptr %12, i32 0, i32 1
  %27 = getelementptr inbounds [8 x i8], ptr %26, i64 0, i64 0
  %28 = load i8, ptr %27, align 8, !tbaa !24
  %29 = icmp ne i8 %28, 0
  br i1 %29, label %32, label %30

30:                                               ; preds = %25
  %31 = call ptr @__errno_location() #14
  store i32 71, ptr %31, align 4, !tbaa !19
  store i32 -1, ptr %3, align 4
  br label %117

32:                                               ; preds = %25
  %33 = getelementptr inbounds nuw %"class.zmq::v1_decoder_t", ptr %12, i32 0, i32 3
  %34 = load i64, ptr %33, align 8, !tbaa !12
  %35 = icmp sge i64 %34, 0
  br i1 %35, label %36, label %48

36:                                               ; preds = %32
  %37 = getelementptr inbounds nuw %"class.zmq::v1_decoder_t", ptr %12, i32 0, i32 1
  %38 = getelementptr inbounds [8 x i8], ptr %37, i64 0, i64 0
  %39 = load i8, ptr %38, align 8, !tbaa !24
  %40 = zext i8 %39 to i32
  %41 = sub nsw i32 %40, 1
  %42 = sext i32 %41 to i64
  %43 = getelementptr inbounds nuw %"class.zmq::v1_decoder_t", ptr %12, i32 0, i32 3
  %44 = load i64, ptr %43, align 8, !tbaa !12
  %45 = icmp sgt i64 %42, %44
  br i1 %45, label %46, label %48

46:                                               ; preds = %36
  %47 = call ptr @__errno_location() #14
  store i32 90, ptr %47, align 4, !tbaa !19
  store i32 -1, ptr %3, align 4
  br label %117

48:                                               ; preds = %36, %32
  call void @llvm.lifetime.start.p0(i64 4, ptr %7) #13
  %49 = getelementptr inbounds nuw %"class.zmq::v1_decoder_t", ptr %12, i32 0, i32 2
  %50 = call noundef i32 @_ZN3zmq5msg_t5closeEv(ptr noundef nonnull align 8 dereferenceable(64) %49)
  store i32 %50, ptr %7, align 4, !tbaa !19
  %51 = getelementptr inbounds nuw %"class.zmq::v1_decoder_t", ptr %12, i32 0, i32 2
  %52 = getelementptr inbounds nuw %"class.zmq::v1_decoder_t", ptr %12, i32 0, i32 1
  %53 = getelementptr inbounds [8 x i8], ptr %52, i64 0, i64 0
  %54 = load i8, ptr %53, align 8, !tbaa !24
  %55 = zext i8 %54 to i32
  %56 = sub nsw i32 %55, 1
  %57 = sext i32 %56 to i64
  %58 = call noundef i32 @_ZN3zmq5msg_t9init_sizeEm(ptr noundef nonnull align 8 dereferenceable(64) %51, i64 noundef %57)
  store i32 %58, ptr %7, align 4, !tbaa !19
  %59 = load i32, ptr %7, align 4, !tbaa !19
  %60 = icmp ne i32 %59, 0
  br i1 %60, label %61, label %106

61:                                               ; preds = %48
  br label %62

62:                                               ; preds = %61
  %63 = call ptr @__errno_location() #14
  %64 = load i32, ptr %63, align 4, !tbaa !19
  %65 = icmp eq i32 %64, 12
  %66 = xor i1 %65, true
  %67 = zext i1 %66 to i64
  %68 = call i64 @llvm.expect.i64(i64 %67, i64 0)
  %69 = icmp ne i64 %68, 0
  br i1 %69, label %70, label %80

70:                                               ; preds = %62
  call void @llvm.lifetime.start.p0(i64 8, ptr %8) #13
  %71 = call ptr @__errno_location() #14
  %72 = load i32, ptr %71, align 4, !tbaa !19
  %73 = call ptr @strerror(i32 noundef %72) #13
  store ptr %73, ptr %8, align 8, !tbaa !21
  %74 = load ptr, ptr @stderr, align 8, !tbaa !22
  %75 = load ptr, ptr %8, align 8, !tbaa !21
  %76 = call i32 (ptr, ptr, ...) @fprintf(ptr noundef %74, ptr noundef @.str, ptr noundef %75, ptr noundef @.str.1, i32 noundef 55) #13
  %77 = load ptr, ptr @stderr, align 8, !tbaa !22
  %78 = call i32 @fflush(ptr noundef %77)
  %79 = load ptr, ptr %8, align 8, !tbaa !21
  call void @_ZN3zmq9zmq_abortEPKc(ptr noundef %79)
  call void @llvm.lifetime.end.p0(i64 8, ptr %8) #13
  br label %80

80:                                               ; preds = %70, %62
  br label %81

81:                                               ; preds = %80
  br label %82

82:                                               ; preds = %81
  %83 = getelementptr inbounds nuw %"class.zmq::v1_decoder_t", ptr %12, i32 0, i32 2
  %84 = call noundef i32 @_ZN3zmq5msg_t4initEv(ptr noundef nonnull align 8 dereferenceable(64) %83)
  store i32 %84, ptr %7, align 4, !tbaa !19
  br label %85

85:                                               ; preds = %82
  %86 = load i32, ptr %7, align 4, !tbaa !19
  %87 = icmp eq i32 %86, 0
  %88 = xor i1 %87, true
  %89 = zext i1 %88 to i64
  %90 = call i64 @llvm.expect.i64(i64 %89, i64 0)
  %91 = icmp ne i64 %90, 0
  br i1 %91, label %92, label %102

92:                                               ; preds = %85
  call void @llvm.lifetime.start.p0(i64 8, ptr %9) #13
  %93 = call ptr @__errno_location() #14
  %94 = load i32, ptr %93, align 4, !tbaa !19
  %95 = call ptr @strerror(i32 noundef %94) #13
  store ptr %95, ptr %9, align 8, !tbaa !21
  %96 = load ptr, ptr @stderr, align 8, !tbaa !22
  %97 = load ptr, ptr %9, align 8, !tbaa !21
  %98 = call i32 (ptr, ptr, ...) @fprintf(ptr noundef %96, ptr noundef @.str, ptr noundef %97, ptr noundef @.str.1, i32 noundef 57) #13
  %99 = load ptr, ptr @stderr, align 8, !tbaa !22
  %100 = call i32 @fflush(ptr noundef %99)
  %101 = load ptr, ptr %9, align 8, !tbaa !21
  call void @_ZN3zmq9zmq_abortEPKc(ptr noundef %101)
  call void @llvm.lifetime.end.p0(i64 8, ptr %9) #13
  br label %102

102:                                              ; preds = %92, %85
  br label %103

103:                                              ; preds = %102
  br label %104

104:                                              ; preds = %103
  %105 = call ptr @__errno_location() #14
  store i32 12, ptr %105, align 4, !tbaa !19
  store i32 -1, ptr %3, align 4
  store i32 1, ptr %10, align 4
  br label %113

106:                                              ; preds = %48
  %107 = getelementptr inbounds nuw %"class.zmq::v1_decoder_t", ptr %12, i32 0, i32 1
  %108 = getelementptr inbounds [8 x i8], ptr %107, i64 0, i64 0
  store { i64, i64 } { i64 ptrtoint (ptr @_ZN3zmq12v1_decoder_t11flags_readyEPKh to i64), i64 0 }, ptr %11, align 8, !tbaa !24
  %109 = getelementptr inbounds nuw { i64, i64 }, ptr %11, i32 0, i32 0
  %110 = load i64, ptr %109, align 8
  %111 = getelementptr inbounds nuw { i64, i64 }, ptr %11, i32 0, i32 1
  %112 = load i64, ptr %111, align 8
  call void @_ZN3zmq14decoder_base_tINS_12v1_decoder_tENS_18c_single_allocatorEE9next_stepEPvmMS1_FiPKhE(ptr noundef nonnull align 8 dereferenceable(64) %12, ptr noundef %108, i64 noundef 1, i64 %110, i64 %112)
  store i32 0, ptr %10, align 4
  br label %113

113:                                              ; preds = %106, %104
  call void @llvm.lifetime.end.p0(i64 4, ptr %7) #13
  %114 = load i32, ptr %10, align 4
  switch i32 %114, label %119 [
    i32 0, label %115
    i32 1, label %117
  ]

115:                                              ; preds = %113
  br label %116

116:                                              ; preds = %115, %18
  store i32 0, ptr %3, align 4
  br label %117

117:                                              ; preds = %116, %113, %46, %30
  %118 = load i32, ptr %3, align 4
  ret i32 %118

119:                                              ; preds = %113
  unreachable
}