; Function Attrs: mustprogress uwtable
define noundef range(i32 -1, 1) i32 @_ZN3zmq12v1_decoder_t19one_byte_size_readyEPKh(ptr noundef nonnull align 8 dereferenceable(144) %0, ptr readnone captures(none) %1) #0 align 2 {
  %3 = getelementptr inbounds nuw i8, ptr %0, i64 64
  %4 = load i8, ptr %3, align 8, !tbaa !28
  switch i8 %4, label %11 [
    i8 -1, label %5
    i8 0, label %9
  ]

5:                                                ; preds = %2
  %6 = getelementptr inbounds nuw i8, ptr %0, i64 24
  store ptr %3, ptr %6, align 8, !tbaa !25
  %7 = getelementptr inbounds nuw i8, ptr %0, i64 32
  store i64 8, ptr %7, align 8, !tbaa !26
  %8 = getelementptr inbounds nuw i8, ptr %0, i64 8
  store i64 ptrtoint (ptr @_ZN3zmq12v1_decoder_t21eight_byte_size_readyEPKh to i64), ptr %8, align 8, !tbaa !27
  %.repack8.i = getelementptr inbounds nuw i8, ptr %0, i64 16
  store i64 0, ptr %.repack8.i, align 8, !tbaa !27
  br label %49

9:                                                ; preds = %2
  %10 = tail call ptr @__errno_location() #18
  store i32 71, ptr %10, align 4, !tbaa !23
  br label %49

11:                                               ; preds = %2
  %12 = zext i8 %4 to i64
  %13 = getelementptr inbounds nuw i8, ptr %0, i64 136
  %14 = load i64, ptr %13, align 8, !tbaa !19
  %15 = icmp sgt i64 %14, -1
  %16 = add nsw i64 %12, -1
  %17 = icmp sgt i64 %16, %14
  %or.cond = select i1 %15, i1 %17, i1 false
  br i1 %or.cond, label %18, label %20

18:                                               ; preds = %11
  %19 = tail call ptr @__errno_location() #18
  store i32 90, ptr %19, align 4, !tbaa !23
  br label %49

20:                                               ; preds = %11
  %21 = getelementptr inbounds nuw i8, ptr %0, i64 72
  %22 = tail call noundef i32 @_ZN3zmq5msg_t5closeEv(ptr noundef nonnull align 8 dereferenceable(64) %21)
  %23 = load i8, ptr %3, align 8, !tbaa !28
  %24 = zext i8 %23 to i64
  %25 = add nsw i64 %24, -1
  %26 = tail call noundef i32 @_ZN3zmq5msg_t9init_sizeEm(ptr noundef nonnull align 8 dereferenceable(64) %21, i64 noundef %25)
  %.not13.not = icmp eq i32 %26, 0
  br i1 %.not13.not, label %.thread, label %27

27:                                               ; preds = %20
  %28 = tail call ptr @__errno_location() #18
  %29 = load i32, ptr %28, align 4, !tbaa !23
  %.not14 = icmp eq i32 %29, 12
  br i1 %.not14, label %36, label %30, !prof !22

30:                                               ; preds = %27
  %31 = tail call ptr @strerror(i32 noundef %29) #19
  %32 = load ptr, ptr @stderr, align 8, !tbaa !14
  %33 = tail call i32 (ptr, ptr, ...) @fprintf(ptr noundef %32, ptr noundef nonnull @.str, ptr noundef %31, ptr noundef nonnull @.str.1, i32 noundef 55) #17
  %34 = load ptr, ptr @stderr, align 8, !tbaa !14
  %35 = tail call i32 @fflush(ptr noundef %34)
  tail call void @_ZN3zmq9zmq_abortEPKc(ptr noundef %31)
  br label %36

36:                                               ; preds = %30, %27
  %37 = tail call noundef i32 @_ZN3zmq5msg_t4initEv(ptr noundef nonnull align 8 dereferenceable(64) %21)
  %.not15 = icmp eq i32 %37, 0
  br i1 %.not15, label %48, label %38, !prof !22

38:                                               ; preds = %36
  %39 = load i32, ptr %28, align 4, !tbaa !23
  %40 = tail call ptr @strerror(i32 noundef %39) #19
  %41 = load ptr, ptr @stderr, align 8, !tbaa !14
  %42 = tail call i32 (ptr, ptr, ...) @fprintf(ptr noundef %41, ptr noundef nonnull @.str, ptr noundef %40, ptr noundef nonnull @.str.1, i32 noundef 57) #17
  %43 = load ptr, ptr @stderr, align 8, !tbaa !14
  %44 = tail call i32 @fflush(ptr noundef %43)
  tail call void @_ZN3zmq9zmq_abortEPKc(ptr noundef %40)
  br label %48

.thread:                                          ; preds = %20
  %45 = getelementptr inbounds nuw i8, ptr %0, i64 24
  store ptr %3, ptr %45, align 8, !tbaa !25
  %46 = getelementptr inbounds nuw i8, ptr %0, i64 32
  store i64 1, ptr %46, align 8, !tbaa !26
  %47 = getelementptr inbounds nuw i8, ptr %0, i64 8
  store i64 ptrtoint (ptr @_ZN3zmq12v1_decoder_t11flags_readyEPKh to i64), ptr %47, align 8, !tbaa !27
  %.repack8.i17 = getelementptr inbounds nuw i8, ptr %0, i64 16
  store i64 0, ptr %.repack8.i17, align 8, !tbaa !27
  br label %49

48:                                               ; preds = %36, %38
  store i32 12, ptr %28, align 4, !tbaa !23
  br label %49

49:                                               ; preds = %5, %.thread, %48, %18, %9
  %.0 = phi i32 [ -1, %18 ], [ -1, %48 ], [ -1, %9 ], [ 0, %.thread ], [ 0, %5 ]
  ret i32 %.0
}